target datalayout = "e-m:e-p270:32:32-p271:32:32-p272:64:64-i64:64-i128:128-f80:128-n8:16:32:64-S128"
target triple = "x86_64-pc-linux-gnu"

%struct.in6_addr = type { %union.anon }
%union.anon = type { [4 x i32] }
%struct.sockaddr_storage = type { i16, [118 x i8], i64 }
%struct.sockaddr_in = type { i16, i16, %struct.in_addr, [8 x i8] }
%struct.in_addr = type { i32 }
%struct.sockaddr_in6 = type { i16, i16, i32, %struct.in6_addr, i32 }
%struct.sockaddr_un = type { i16, [108 x i8] }

@.str.12 = private unnamed_addr constant [8 x i8] c"unix:%s\00", align 1
@.str.13 = private unnamed_addr constant [8 x i8] c"[%s]:%d\00", align 1
@.str.14 = private unnamed_addr constant [8 x i8] c"[::]:%d\00", align 1

; Function Attrs: nounwind uwtable
define dso_local ptr @sockaddr_to_string(ptr noundef %0, i32 noundef %1) #0 {
  %3 = alloca ptr, align 8
  %4 = alloca ptr, align 8
  %5 = alloca i32, align 4
  %6 = alloca i32, align 4
  %7 = alloca ptr, align 8
  %8 = alloca i32, align 4
  %9 = alloca ptr, align 8
  %10 = alloca i32, align 4
  %11 = alloca ptr, align 8
  store ptr %0, ptr %4, align 8
  store i32 %1, ptr %5, align 4
  call void @llvm.lifetime.start.p0(i64 4, ptr %6) #9
  %12 = call ptr @__errno_location() #10
  %13 = load i32, ptr %12, align 4
  store i32 %13, ptr %6, align 4
  call void @llvm.lifetime.start.p0(i64 8, ptr %7) #9
  store ptr null, ptr %7, align 8
  call void @llvm.lifetime.start.p0(i64 4, ptr %8) #9
  store i32 0, ptr %8, align 4
  call void @llvm.lifetime.start.p0(i64 8, ptr %9) #9
  store ptr null, ptr %9, align 8
  %14 = load ptr, ptr %4, align 8
  %15 = getelementptr inbounds nuw %struct.sockaddr_storage, ptr %14, i32 0, i32 0
  %16 = load i16, ptr %15, align 8
  %17 = zext i16 %16 to i32
  %18 = icmp eq i32 %17, 0
  br i1 %18, label %19, label %20

19:                                               ; preds = %2
  store ptr null, ptr %3, align 8
  store i32 1, ptr %10, align 4
  br label %84

20:                                               ; preds = %2
  %21 = load ptr, ptr %4, align 8
  %22 = getelementptr inbounds nuw %struct.sockaddr_storage, ptr %21, i32 0, i32 0
  %23 = load i16, ptr %22, align 8
  %24 = zext i16 %23 to i32
  %25 = icmp eq i32 %24, 1
  br i1 %25, label %26, label %40

26:                                               ; preds = %20
  call void @llvm.lifetime.start.p0(i64 8, ptr %11) #9
  %27 = load ptr, ptr %4, align 8
  store ptr %27, ptr %11, align 8
  %28 = load ptr, ptr %11, align 8
  %29 = getelementptr inbounds nuw %struct.sockaddr_un, ptr %28, i32 0, i32 1
  %30 = getelementptr inbounds [108 x i8], ptr %29, i64 0, i64 0
  %31 = load i8, ptr %30, align 2
  %32 = icmp ne i8 %31, 0
  br i1 %32, label %33, label %38

33:                                               ; preds = %26
  %34 = load ptr, ptr %11, align 8
  %35 = getelementptr inbounds nuw %struct.sockaddr_un, ptr %34, i32 0, i32 1
  %36 = getelementptr inbounds [108 x i8], ptr %35, i64 0, i64 0
  %37 = call ptr (ptr, ...) @xstrdup_printf(ptr noundef @.str.12, ptr noundef %36)
  store ptr %37, ptr %3, align 8
  store i32 1, ptr %10, align 4
  br label %39

38:                                               ; preds = %26
  store ptr null, ptr %3, align 8
  store i32 1, ptr %10, align 4
  br label %39

39:                                               ; preds = %38, %33
  call void @llvm.lifetime.end.p0(i64 8, ptr %11) #9
  br label %84

40:                                               ; preds = %20
  %41 = load ptr, ptr %4, align 8
  %42 = getelementptr inbounds nuw %struct.sockaddr_storage, ptr %41, i32 0, i32 0
  %43 = load i16, ptr %42, align 8
  %44 = zext i16 %43 to i32
  %45 = icmp eq i32 %44, 2
  br i1 %45, label %46, label %51

46:                                               ; preds = %40
  %47 = load ptr, ptr %4, align 8
  %48 = getelementptr inbounds nuw %struct.sockaddr_in, ptr %47, i32 0, i32 1
  %49 = load i16, ptr %48, align 2
  %50 = zext i16 %49 to i32
  store i32 %50, ptr %8, align 4
  br label %63

51:                                               ; preds = %40
  %52 = load ptr, ptr %4, align 8
  %53 = getelementptr inbounds nuw %struct.sockaddr_storage, ptr %52, i32 0, i32 0
  %54 = load i16, ptr %53, align 8
  %55 = zext i16 %54 to i32
  %56 = icmp eq i32 %55, 10
  br i1 %56, label %57, label %62

57:                                               ; preds = %51
  %58 = load ptr, ptr %4, align 8
  %59 = getelementptr inbounds nuw %struct.sockaddr_in6, ptr %58, i32 0, i32 1
  %60 = load i16, ptr %59, align 2
  %61 = zext i16 %60 to i32
  store i32 %61, ptr %8, align 4
  br label %62

62:                                               ; preds = %57, %51
  br label %63

63:                                               ; preds = %62, %46
  %64 = load ptr, ptr %4, align 8
  %65 = call ptr @xgetnameinfo(ptr noundef %64)
  store ptr %65, ptr %9, align 8
  %66 = load ptr, ptr %9, align 8
  %67 = icmp ne ptr %66, null
  br i1 %67, label %68, label %74

68:                                               ; preds = %63
  %69 = load i32, ptr %8, align 4
  %70 = icmp ne i32 %69, 0
  br i1 %70, label %71, label %74

71:                                               ; preds = %68
  %72 = load ptr, ptr %9, align 8
  %73 = load i32, ptr %8, align 4
  call void (ptr, ptr, ...) @_xstrfmtcat(ptr noundef %7, ptr noundef @.str.13, ptr noundef %72, i32 noundef %73)
  br label %80

74:                                               ; preds = %68, %63
  %75 = load i32, ptr %8, align 4
  %76 = icmp ne i32 %75, 0
  br i1 %76, label %77, label %79

77:                                               ; preds = %74
  %78 = load i32, ptr %8, align 4
  call void (ptr, ptr, ...) @_xstrfmtcat(ptr noundef %7, ptr noundef @.str.14, i32 noundef %78)
  br label %79

79:                                               ; preds = %77, %74
  br label %80

80:                                               ; preds = %79, %71
  call void @slurm_xfree(ptr noundef %9)
  %81 = load i32, ptr %6, align 4
  %82 = call ptr @__errno_location() #10
  store i32 %81, ptr %82, align 4
  %83 = load ptr, ptr %7, align 8
  store ptr %83, ptr %3, align 8
  store i32 1, ptr %10, align 4
  br label %84

84:                                               ; preds = %80, %39, %19
  call void @llvm.lifetime.end.p0(i64 8, ptr %9) #9
  call void @llvm.lifetime.end.p0(i64 4, ptr %8) #9
  call void @llvm.lifetime.end.p0(i64 8, ptr %7) #9
  call void @llvm.lifetime.end.p0(i64 4, ptr %6) #9
  %85 = load ptr, ptr %3, align 8
  ret ptr %85
}