; Function Attrs: nounwind uwtable
define dso_local ptr @sockaddr_to_string(ptr noundef %0, i32 %1) local_unnamed_addr #0 {
  %3 = alloca ptr, align 8
  %4 = alloca ptr, align 8
  %5 = tail call ptr @__errno_location() #12
  %6 = load i32, ptr %5, align 4
  call void @llvm.lifetime.start.p0(i64 8, ptr nonnull %3) #11
  store ptr null, ptr %3, align 8
  call void @llvm.lifetime.start.p0(i64 8, ptr nonnull %4) #11
  %7 = load i16, ptr %0, align 8
  switch i16 %7, label %15 [
    i16 0, label %24
    i16 1, label %8
    i16 2, label %.sink.split
    i16 10, label %.sink.split
  ]

8:                                                ; preds = %2
  %9 = getelementptr inbounds nuw i8, ptr %0, i64 2
  %10 = load i8, ptr %9, align 2
  %.not = icmp eq i8 %10, 0
  br i1 %.not, label %24, label %11

11:                                               ; preds = %8
  %12 = tail call ptr (ptr, ...) @xstrdup_printf(ptr noundef nonnull @.str.12, ptr noundef nonnull %9) #11
  br label %24

.sink.split:                                      ; preds = %2, %2
  %13 = getelementptr inbounds nuw i8, ptr %0, i64 2
  %14 = load i16, ptr %13, align 2
  br label %15

15:                                               ; preds = %.sink.split, %2
  %.016.shrunk = phi i16 [ 0, %2 ], [ %14, %.sink.split ]
  %.016 = zext i16 %.016.shrunk to i32
  %16 = tail call ptr @xgetnameinfo(ptr noundef nonnull %0) #11
  store ptr %16, ptr %4, align 8
  %17 = icmp ne ptr %16, null
  %18 = icmp ne i16 %.016.shrunk, 0
  %or.cond = select i1 %17, i1 %18, i1 false
  br i1 %or.cond, label %19, label %20

19:                                               ; preds = %15
  call void (ptr, ptr, ...) @_xstrfmtcat(ptr noundef nonnull %3, ptr noundef nonnull @.str.13, ptr noundef nonnull %16, i32 noundef %.016) #11
  br label %22

20:                                               ; preds = %15
  br i1 %18, label %21, label %22

21:                                               ; preds = %20
  call void (ptr, ptr, ...) @_xstrfmtcat(ptr noundef nonnull %3, ptr noundef nonnull @.str.14, i32 noundef %.016) #11
  br label %22

22:                                               ; preds = %20, %21, %19
  call void @slurm_xfree(ptr noundef nonnull %4) #11
  store i32 %6, ptr %5, align 4
  %23 = load ptr, ptr %3, align 8
  br label %24

24:                                               ; preds = %2, %11, %8, %22
  %.0 = phi ptr [ %23, %22 ], [ null, %2 ], [ %12, %11 ], [ null, %8 ]
  call void @llvm.lifetime.end.p0(i64 8, ptr nonnull %4) #11
  call void @llvm.lifetime.end.p0(i64 8, ptr nonnull %3) #11
  ret ptr %.0
}